target datalayout = "e-m:e-p270:32:32-p271:32:32-p272:64:64-i64:64-i128:128-f80:128-n8:16:32:64-S128"
target triple = "x86_64-pc-linux-gnu"

%struct.topo_weight_info = type { ptr, i32, i64 }

; Function Attrs: nounwind uwtable
define dso_local void @eval_nodes_topo_weight_free(ptr noundef %0) #0 {
  %2 = alloca ptr, align 8
  %3 = alloca ptr, align 8
  store ptr %0, ptr %2, align 8
  call void @llvm.lifetime.start.p0(i64 8, ptr %3) #4
  %4 = load ptr, ptr %2, align 8
  store ptr %4, ptr %3, align 8
  br label %5

5:                                                ; preds = %1
  %6 = load ptr, ptr %3, align 8
  %7 = getelementptr inbounds nuw %struct.topo_weight_info, ptr %6, i32 0, i32 0
  %8 = load ptr, ptr %7, align 8
  %9 = icmp ne ptr %8, null
  br i1 %9, label %10, label %13

10:                                               ; preds = %5
  %11 = load ptr, ptr %3, align 8
  %12 = getelementptr inbounds nuw %struct.topo_weight_info, ptr %11, i32 0, i32 0
  call void @slurm_bit_free(ptr noundef %12)
  br label %13

13:                                               ; preds = %10, %5
  %14 = load ptr, ptr %3, align 8
  %15 = getelementptr inbounds nuw %struct.topo_weight_info, ptr %14, i32 0, i32 0
  store ptr null, ptr %15, align 8
  br label %16

16:                                               ; preds = %13
  br label %17

17:                                               ; preds = %16
  call void @slurm_xfree(ptr noundef %3)
  call void @llvm.lifetime.end.p0(i64 8, ptr %3) #4
  ret void
}