; Function Attrs: nounwind uwtable
define dso_local void @eval_nodes_topo_weight_free(ptr noundef %0) local_unnamed_addr #0 {
  %2 = alloca ptr, align 8
  call void @llvm.lifetime.start.p0(i64 8, ptr nonnull %2) #8
  store ptr %0, ptr %2, align 8
  %3 = load ptr, ptr %0, align 8
  %.not = icmp eq ptr %3, null
  br i1 %.not, label %5, label %4

4:                                                ; preds = %1
  tail call void @slurm_bit_free(ptr noundef nonnull %0) #8
  br label %5

5:                                                ; preds = %4, %1
  store ptr null, ptr %0, align 8
  call void @slurm_xfree(ptr noundef nonnull %2) #8
  call void @llvm.lifetime.end.p0(i64 8, ptr nonnull %2) #8
  ret void
}